target datalayout = "e-m:e-p270:32:32-p271:32:32-p272:64:64-i64:64-i128:128-f80:128-n8:16:32:64-S128"
target triple = "x86_64-unknown-linux-gnu"

%"class.std::__shared_count" = type { ptr }
%"class.OpenColorIO_v2_4dev::GammaOpData" = type { %"class.OpenColorIO_v2_4dev::OpData", i32, %"class.std::vector.8", %"class.std::vector.8", %"class.std::vector.8", %"class.std::vector.8" }
%"class.OpenColorIO_v2_4dev::OpData" = type { ptr, %"class.std::mutex", %"class.OpenColorIO_v2_4dev::FormatMetadataImpl" }
%"class.std::mutex" = type { %"class.std::__mutex_base" }
%"class.std::__mutex_base" = type { %union.pthread_mutex_t }
%union.pthread_mutex_t = type { %struct.__pthread_mutex_s }
%struct.__pthread_mutex_s = type { i32, i32, i32, i32, i32, i16, i16, %struct.__pthread_internal_list }
%struct.__pthread_internal_list = type { ptr, ptr }
%"class.OpenColorIO_v2_4dev::FormatMetadataImpl" = type { %"class.OpenColorIO_v2_4dev::FormatMetadata", %"class.std::__cxx11::basic_string", %"class.std::__cxx11::basic_string", %"class.std::vector", %"class.std::vector.3" }
%"class.OpenColorIO_v2_4dev::FormatMetadata" = type { ptr }
%"class.std::__cxx11::basic_string" = type { %"struct.std::__cxx11::basic_string<char>::_Alloc_hider", i64, %union.anon }
%"struct.std::__cxx11::basic_string<char>::_Alloc_hider" = type { ptr }
%union.anon = type { i64, [8 x i8] }
%"class.std::vector" = type { %"struct.std::_Vector_base" }
%"struct.std::_Vector_base" = type { %"struct.std::_Vector_base<std::pair<std::__cxx11::basic_string<char>, std::__cxx11::basic_string<char>>, std::allocator<std::pair<std::__cxx11::basic_string<char>, std::__cxx11::basic_string<char>>>>::_Vector_impl" }
%"struct.std::_Vector_base<std::pair<std::__cxx11::basic_string<char>, std::__cxx11::basic_string<char>>, std::allocator<std::pair<std::__cxx11::basic_string<char>, std::__cxx11::basic_string<char>>>>::_Vector_impl" = type { %"struct.std::_Vector_base<std::pair<std::__cxx11::basic_string<char>, std::__cxx11::basic_string<char>>, std::allocator<std::pair<std::__cxx11::basic_string<char>, std::__cxx11::basic_string<char>>>>::_Vector_impl_data" }
%"struct.std::_Vector_base<std::pair<std::__cxx11::basic_string<char>, std::__cxx11::basic_string<char>>, std::allocator<std::pair<std::__cxx11::basic_string<char>, std::__cxx11::basic_string<char>>>>::_Vector_impl_data" = type { ptr, ptr, ptr }
%"class.std::vector.3" = type { %"struct.std::_Vector_base.4" }
%"struct.std::_Vector_base.4" = type { %"struct.std::_Vector_base<OpenColorIO_v2_4dev::FormatMetadataImpl, std::allocator<OpenColorIO_v2_4dev::FormatMetadataImpl>>::_Vector_impl" }
%"struct.std::_Vector_base<OpenColorIO_v2_4dev::FormatMetadataImpl, std::allocator<OpenColorIO_v2_4dev::FormatMetadataImpl>>::_Vector_impl" = type { %"struct.std::_Vector_base<OpenColorIO_v2_4dev::FormatMetadataImpl, std::allocator<OpenColorIO_v2_4dev::FormatMetadataImpl>>::_Vector_impl_data" }
%"struct.std::_Vector_base<OpenColorIO_v2_4dev::FormatMetadataImpl, std::allocator<OpenColorIO_v2_4dev::FormatMetadataImpl>>::_Vector_impl_data" = type { ptr, ptr, ptr }
%"class.std::vector.8" = type { %"struct.std::_Vector_base.9" }
%"struct.std::_Vector_base.9" = type { %"struct.std::_Vector_base<double, std::allocator<double>>::_Vector_impl" }
%"struct.std::_Vector_base<double, std::allocator<double>>::_Vector_impl" = type { %"struct.std::_Vector_base<double, std::allocator<double>>::_Vector_impl_data" }
%"struct.std::_Vector_base<double, std::allocator<double>>::_Vector_impl_data" = type { ptr, ptr, ptr }
%"class.OpenColorIO_v2_4dev::OpCPU" = type { ptr }
%"class.OpenColorIO_v2_4dev::GammaMoncurveOpCPU" = type { %"class.OpenColorIO_v2_4dev::OpCPU", %"struct.OpenColorIO_v2_4dev::RendererParams", %"struct.OpenColorIO_v2_4dev::RendererParams", %"struct.OpenColorIO_v2_4dev::RendererParams", %"struct.OpenColorIO_v2_4dev::RendererParams" }
%"struct.OpenColorIO_v2_4dev::RendererParams" = type { float, float, float, float, float }
%"class.std::__shared_ptr.14" = type { ptr, %"class.std::__shared_count" }

; Function Attrs: mustprogress nounwind uwtable
define linkonce_odr hidden noundef ptr @_ZNKSt12__shared_ptrIKN19OpenColorIO_v2_4dev11GammaOpDataELN9__gnu_cxx12_Lock_policyE2EE3getEv(ptr noundef nonnull align 8 dereferenceable(16) %this) #5 comdat align 2 {
entry:
  %this.addr = alloca ptr, align 8
  store ptr %this, ptr %this.addr, align 8
  %this1 = load ptr, ptr %this.addr, align 8
  %_M_ptr = getelementptr inbounds %"class.std::__shared_ptr.14", ptr %this1, i32 0, i32 0
  %0 = load ptr, ptr %_M_ptr, align 8
  ret ptr %0
}

; Function Attrs: mustprogress nounwind uwtable
define linkonce_odr hidden noundef ptr @_ZNKSt19__shared_ptr_accessIKN19OpenColorIO_v2_4dev11GammaOpDataELN9__gnu_cxx12_Lock_policyE2ELb0ELb0EE6_M_getEv(ptr noundef nonnull align 1 dereferenceable(1) %this) #5 comdat align 2 {
entry:
  %this.addr = alloca ptr, align 8
  store ptr %this, ptr %this.addr, align 8
  %this1 = load ptr, ptr %this.addr, align 8
  %call = call noundef ptr @_ZNKSt12__shared_ptrIKN19OpenColorIO_v2_4dev11GammaOpDataELN9__gnu_cxx12_Lock_policyE2EE3getEv(ptr noundef nonnull align 8 dereferenceable(16) %this1) #3
  ret ptr %call
}

; Function Attrs: mustprogress nounwind uwtable
define linkonce_odr hidden noundef nonnull align 8 dereferenceable(24) ptr @_ZNK19OpenColorIO_v2_4dev11GammaOpData14getAlphaParamsEv(ptr noundef nonnull align 8 dereferenceable(272) %this) #5 comdat align 2 {
entry:
  %this.addr = alloca ptr, align 8
  store ptr %this, ptr %this.addr, align 8
  %this1 = load ptr, ptr %this.addr, align 8
  %m_alphaParams = getelementptr inbounds %"class.OpenColorIO_v2_4dev::GammaOpData", ptr %this1, i32 0, i32 5
  ret ptr %m_alphaParams
}

; Function Attrs: mustprogress nounwind uwtable
define linkonce_odr hidden noundef nonnull align 8 dereferenceable(24) ptr @_ZNK19OpenColorIO_v2_4dev11GammaOpData13getBlueParamsEv(ptr noundef nonnull align 8 dereferenceable(272) %this) #5 comdat align 2 {
entry:
  %this.addr = alloca ptr, align 8
  store ptr %this, ptr %this.addr, align 8
  %this1 = load ptr, ptr %this.addr, align 8
  %m_blueParams = getelementptr inbounds %"class.OpenColorIO_v2_4dev::GammaOpData", ptr %this1, i32 0, i32 4
  ret ptr %m_blueParams
}

; Function Attrs: mustprogress nounwind uwtable
define linkonce_odr hidden noundef nonnull align 8 dereferenceable(24) ptr @_ZNK19OpenColorIO_v2_4dev11GammaOpData14getGreenParamsEv(ptr noundef nonnull align 8 dereferenceable(272) %this) #5 comdat align 2 {
entry:
  %this.addr = alloca ptr, align 8
  store ptr %this, ptr %this.addr, align 8
  %this1 = load ptr, ptr %this.addr, align 8
  %m_greenParams = getelementptr inbounds %"class.OpenColorIO_v2_4dev::GammaOpData", ptr %this1, i32 0, i32 3
  ret ptr %m_greenParams
}

; Function Attrs: mustprogress nounwind uwtable
define linkonce_odr hidden noundef nonnull align 8 dereferenceable(24) ptr @_ZNK19OpenColorIO_v2_4dev11GammaOpData12getRedParamsEv(ptr noundef nonnull align 8 dereferenceable(272) %this) #5 comdat align 2 {
entry:
  %this.addr = alloca ptr, align 8
  store ptr %this, ptr %this.addr, align 8
  %this1 = load ptr, ptr %this.addr, align 8
  %m_redParams = getelementptr inbounds %"class.OpenColorIO_v2_4dev::GammaOpData", ptr %this1, i32 0, i32 2
  ret ptr %m_redParams
}

; Function Attrs: mustprogress nounwind uwtable
define linkonce_odr hidden noundef ptr @_ZNKSt19__shared_ptr_accessIKN19OpenColorIO_v2_4dev11GammaOpDataELN9__gnu_cxx12_Lock_policyE2ELb0ELb0EEptEv(ptr noundef nonnull align 1 dereferenceable(1) %this) #5 comdat align 2 {
entry:
  %this.addr = alloca ptr, align 8
  store ptr %this, ptr %this.addr, align 8
  %this1 = load ptr, ptr %this.addr, align 8
  %call = call noundef ptr @_ZNKSt19__shared_ptr_accessIKN19OpenColorIO_v2_4dev11GammaOpDataELN9__gnu_cxx12_Lock_policyE2ELb0ELb0EE6_M_getEv(ptr noundef nonnull align 1 dereferenceable(1) %this1) #3
  ret ptr %call
}

; Function Attrs: mustprogress uwtable
define hidden void @_ZN19OpenColorIO_v2_4dev27GammaMoncurveMirrorOpCPUFwd6updateERSt10shared_ptrIKNS_11GammaOpDataEE(ptr noundef nonnull align 8 dereferenceable(88) %this, ptr noundef nonnull align 8 dereferenceable(16) %gamma) #6 align 2 {
entry:
  %this.addr = alloca ptr, align 8
  %gamma.addr = alloca ptr, align 8
  store ptr %this, ptr %this.addr, align 8
  store ptr %gamma, ptr %gamma.addr, align 8
  %this1 = load ptr, ptr %this.addr, align 8
  %0 = load ptr, ptr %gamma.addr, align 8
  %call = call noundef ptr @_ZNKSt19__shared_ptr_accessIKN19OpenColorIO_v2_4dev11GammaOpDataELN9__gnu_cxx12_Lock_policyE2ELb0ELb0EEptEv(ptr noundef nonnull align 1 dereferenceable(1) %0) #3
  %call2 = call noundef nonnull align 8 dereferenceable(24) ptr @_ZNK19OpenColorIO_v2_4dev11GammaOpData12getRedParamsEv(ptr noundef nonnull align 8 dereferenceable(272) %call)
  %m_red = getelementptr inbounds %"class.OpenColorIO_v2_4dev::GammaMoncurveOpCPU", ptr %this1, i32 0, i32 1
  call void @_ZN19OpenColorIO_v2_4dev16ComputeParamsFwdERKSt6vectorIdSaIdEERNS_14RendererParamsE(ptr noundef nonnull align 8 dereferenceable(24) %call2, ptr noundef nonnull align 4 dereferenceable(20) %m_red)
  %1 = load ptr, ptr %gamma.addr, align 8
  %call3 = call noundef ptr @_ZNKSt19__shared_ptr_accessIKN19OpenColorIO_v2_4dev11GammaOpDataELN9__gnu_cxx12_Lock_policyE2ELb0ELb0EEptEv(ptr noundef nonnull align 1 dereferenceable(1) %1) #3
  %call4 = call noundef nonnull align 8 dereferenceable(24) ptr @_ZNK19OpenColorIO_v2_4dev11GammaOpData14getGreenParamsEv(ptr noundef nonnull align 8 dereferenceable(272) %call3)
  %m_green = getelementptr inbounds %"class.OpenColorIO_v2_4dev::GammaMoncurveOpCPU", ptr %this1, i32 0, i32 2
  call void @_ZN19OpenColorIO_v2_4dev16ComputeParamsFwdERKSt6vectorIdSaIdEERNS_14RendererParamsE(ptr noundef nonnull align 8 dereferenceable(24) %call4, ptr noundef nonnull align 4 dereferenceable(20) %m_green)
  %2 = load ptr, ptr %gamma.addr, align 8
  %call5 = call noundef ptr @_ZNKSt19__shared_ptr_accessIKN19OpenColorIO_v2_4dev11GammaOpDataELN9__gnu_cxx12_Lock_policyE2ELb0ELb0EEptEv(ptr noundef nonnull align 1 dereferenceable(1) %2) #3
  %call6 = call noundef nonnull align 8 dereferenceable(24) ptr @_ZNK19OpenColorIO_v2_4dev11GammaOpData13getBlueParamsEv(ptr noundef nonnull align 8 dereferenceable(272) %call5)
  %m_blue = getelementptr inbounds %"class.OpenColorIO_v2_4dev::GammaMoncurveOpCPU", ptr %this1, i32 0, i32 3
  call void @_ZN19OpenColorIO_v2_4dev16ComputeParamsFwdERKSt6vectorIdSaIdEERNS_14RendererParamsE(ptr noundef nonnull align 8 dereferenceable(24) %call6, ptr noundef nonnull align 4 dereferenceable(20) %m_blue)
  %3 = load ptr, ptr %gamma.addr, align 8
  %call7 = call noundef ptr @_ZNKSt19__shared_ptr_accessIKN19OpenColorIO_v2_4dev11GammaOpDataELN9__gnu_cxx12_Lock_policyE2ELb0ELb0EEptEv(ptr noundef nonnull align 1 dereferenceable(1) %3) #3
  %call8 = call noundef nonnull align 8 dereferenceable(24) ptr @_ZNK19OpenColorIO_v2_4dev11GammaOpData14getAlphaParamsEv(ptr noundef nonnull align 8 dereferenceable(272) %call7)
  %m_alpha = getelementptr inbounds %"class.OpenColorIO_v2_4dev::GammaMoncurveOpCPU", ptr %this1, i32 0, i32 4
  call void @_ZN19OpenColorIO_v2_4dev16ComputeParamsFwdERKSt6vectorIdSaIdEERNS_14RendererParamsE(ptr noundef nonnull align 8 dereferenceable(24) %call8, ptr noundef nonnull align 4 dereferenceable(20) %m_alpha)
  ret void
}