; Function Attrs: mustprogress uwtable
define hidden void @_ZN19OpenColorIO_v2_4dev27GammaMoncurveMirrorOpCPUFwd6updateERSt10shared_ptrIKNS_11GammaOpDataEE(ptr noundef nonnull align 8 dereferenceable(88) %this, ptr nocapture noundef nonnull readonly align 8 dereferenceable(16) %gamma) local_unnamed_addr #3 align 2 {
entry:
  %0 = load ptr, ptr %gamma, align 8
  %m_redParams.i = getelementptr inbounds i8, ptr %0, i64 176
  %m_red = getelementptr inbounds i8, ptr %this, i64 8
  tail call void @_ZN19OpenColorIO_v2_4dev16ComputeParamsFwdERKSt6vectorIdSaIdEERNS_14RendererParamsE(ptr noundef nonnull align 8 dereferenceable(24) %m_redParams.i, ptr noundef nonnull align 4 dereferenceable(20) %m_red)
  %1 = load ptr, ptr %gamma, align 8
  %m_greenParams.i = getelementptr inbounds i8, ptr %1, i64 200
  %m_green = getelementptr inbounds i8, ptr %this, i64 28
  tail call void @_ZN19OpenColorIO_v2_4dev16ComputeParamsFwdERKSt6vectorIdSaIdEERNS_14RendererParamsE(ptr noundef nonnull align 8 dereferenceable(24) %m_greenParams.i, ptr noundef nonnull align 4 dereferenceable(20) %m_green)
  %2 = load ptr, ptr %gamma, align 8
  %m_blueParams.i = getelementptr inbounds i8, ptr %2, i64 224
  %m_blue = getelementptr inbounds i8, ptr %this, i64 48
  tail call void @_ZN19OpenColorIO_v2_4dev16ComputeParamsFwdERKSt6vectorIdSaIdEERNS_14RendererParamsE(ptr noundef nonnull align 8 dereferenceable(24) %m_blueParams.i, ptr noundef nonnull align 4 dereferenceable(20) %m_blue)
  %3 = load ptr, ptr %gamma, align 8
  %m_alphaParams.i = getelementptr inbounds i8, ptr %3, i64 248
  %m_alpha = getelementptr inbounds i8, ptr %this, i64 68
  tail call void @_ZN19OpenColorIO_v2_4dev16ComputeParamsFwdERKSt6vectorIdSaIdEERNS_14RendererParamsE(ptr noundef nonnull align 8 dereferenceable(24) %m_alphaParams.i, ptr noundef nonnull align 4 dereferenceable(20) %m_alpha)
  ret void
}